target datalayout = "e-m:e-p270:32:32-p271:32:32-p272:64:64-i64:64-i128:128-f80:128-n8:16:32:64-S128"
target triple = "x86_64-pc-linux-gnu"

%"class.ceres::internal::DenseSparseMatrix" = type { %"class.ceres::internal::SparseMatrix", %"class.Eigen::Matrix" }
%"class.ceres::internal::SparseMatrix" = type { %"class.ceres::internal::LinearOperator" }
%"class.ceres::internal::LinearOperator" = type { ptr }
%"class.Eigen::Matrix" = type { %"class.Eigen::PlainObjectBase" }
%"class.Eigen::PlainObjectBase" = type { %"class.Eigen::DenseStorage" }
%"class.Eigen::DenseStorage" = type { ptr, i64, i64 }

@_ZTVN5ceres8internal12SparseMatrixE = external hidden unnamed_addr constant { [25 x ptr] }, align 8
@_ZTVN5ceres8internal14LinearOperatorE = external hidden unnamed_addr constant { [14 x ptr] }, align 8

; Function Attrs: mustprogress nounwind uwtable
define linkonce_odr hidden void @_ZN5Eigen9DenseBaseINS_6MatrixIdLin1ELin1ELi1ELin1ELin1EEEEC2Ev(ptr noundef nonnull align 1 dereferenceable(1) %0) unnamed_addr #1 comdat align 2 {
  %2 = alloca ptr, align 8
  store ptr %0, ptr %2, align 8, !tbaa !60
  ret void
}

; Function Attrs: noinline noreturn nounwind uwtable
define linkonce_odr hidden void @__clang_call_terminate(ptr noundef %0) #12 comdat {
  %2 = call ptr @__cxa_begin_catch(ptr %0) #23
  call void @_ZSt9terminatev() #25
  unreachable
}

; Function Attrs: mustprogress nounwind uwtable
define linkonce_odr hidden void @_ZN5Eigen12DenseStorageIdLin1ELin1ELin1ELi1EEC2EOS1_(ptr noundef nonnull align 8 dereferenceable(24) %0, ptr noundef nonnull align 8 dereferenceable(24) %1) unnamed_addr #1 comdat align 2 {
  %3 = alloca ptr, align 8
  %4 = alloca ptr, align 8
  store ptr %0, ptr %3, align 8, !tbaa !139
  store ptr %1, ptr %4, align 8, !tbaa !139
  %5 = load ptr, ptr %3, align 8
  %6 = getelementptr inbounds nuw %"class.Eigen::DenseStorage", ptr %5, i32 0, i32 0
  %7 = load ptr, ptr %4, align 8, !tbaa !139
  %8 = getelementptr inbounds nuw %"class.Eigen::DenseStorage", ptr %7, i32 0, i32 0
  %9 = load ptr, ptr %8, align 8, !tbaa !28
  store ptr %9, ptr %6, align 8, !tbaa !141
  %10 = getelementptr inbounds nuw %"class.Eigen::DenseStorage", ptr %5, i32 0, i32 1
  %11 = load ptr, ptr %4, align 8, !tbaa !139
  %12 = getelementptr inbounds nuw %"class.Eigen::DenseStorage", ptr %11, i32 0, i32 1
  %13 = load i64, ptr %12, align 8, !tbaa !34
  store i64 %13, ptr %10, align 8, !tbaa !143
  %14 = getelementptr inbounds nuw %"class.Eigen::DenseStorage", ptr %5, i32 0, i32 2
  %15 = load ptr, ptr %4, align 8, !tbaa !139
  %16 = getelementptr inbounds nuw %"class.Eigen::DenseStorage", ptr %15, i32 0, i32 2
  %17 = load i64, ptr %16, align 8, !tbaa !34
  store i64 %17, ptr %14, align 8, !tbaa !144
  %18 = load ptr, ptr %4, align 8, !tbaa !139
  %19 = getelementptr inbounds nuw %"class.Eigen::DenseStorage", ptr %18, i32 0, i32 0
  store ptr null, ptr %19, align 8, !tbaa !141
  %20 = load ptr, ptr %4, align 8, !tbaa !139
  %21 = getelementptr inbounds nuw %"class.Eigen::DenseStorage", ptr %20, i32 0, i32 1
  store i64 0, ptr %21, align 8, !tbaa !143
  %22 = load ptr, ptr %4, align 8, !tbaa !139
  %23 = getelementptr inbounds nuw %"class.Eigen::DenseStorage", ptr %22, i32 0, i32 2
  store i64 0, ptr %23, align 8, !tbaa !144
  ret void
}

; Function Attrs: mustprogress uwtable
define linkonce_odr hidden void @_ZN5Eigen10MatrixBaseINS_6MatrixIdLin1ELin1ELi1ELin1ELin1EEEEC2Ev(ptr noundef nonnull align 1 dereferenceable(1) %0) unnamed_addr #3 comdat align 2 {
  %2 = alloca ptr, align 8
  store ptr %0, ptr %2, align 8, !tbaa !62
  %3 = load ptr, ptr %2, align 8
  call void @_ZN5Eigen9DenseBaseINS_6MatrixIdLin1ELin1ELi1ELin1ELin1EEEEC2Ev(ptr noundef nonnull align 1 dereferenceable(1) %3)
  ret void
}

; Function Attrs: inlinehint mustprogress nounwind uwtable
define linkonce_odr hidden void @_ZN5Eigen15PlainObjectBaseINS_6MatrixIdLin1ELin1ELi1ELin1ELin1EEEE22_check_template_paramsEv() #4 comdat align 2 {
  ret void
}

; Function Attrs: mustprogress nounwind uwtable
define linkonce_odr hidden void @_ZN5Eigen15PlainObjectBaseINS_6MatrixIdLin1ELin1ELi1ELin1ELin1EEEEC2EOS3_(ptr noundef nonnull align 8 dereferenceable(24) %0, ptr noundef nonnull align 8 dereferenceable(24) %1) unnamed_addr #1 comdat align 2 personality ptr @__gxx_personality_v0 {
  %3 = alloca ptr, align 8
  %4 = alloca ptr, align 8
  store ptr %0, ptr %3, align 8, !tbaa !58
  store ptr %1, ptr %4, align 8, !tbaa !58
  %5 = load ptr, ptr %3, align 8
  invoke void @_ZN5Eigen10MatrixBaseINS_6MatrixIdLin1ELin1ELi1ELin1ELin1EEEEC2Ev(ptr noundef nonnull align 1 dereferenceable(1) %5)
          to label %6 unwind label %10

6:                                                ; preds = %2
  %7 = getelementptr inbounds nuw %"class.Eigen::PlainObjectBase", ptr %5, i32 0, i32 0
  %8 = load ptr, ptr %4, align 8, !tbaa !58
  %9 = getelementptr inbounds nuw %"class.Eigen::PlainObjectBase", ptr %8, i32 0, i32 0
  call void @_ZN5Eigen12DenseStorageIdLin1ELin1ELin1ELi1EEC2EOS1_(ptr noundef nonnull align 8 dereferenceable(24) %7, ptr noundef nonnull align 8 dereferenceable(24) %9) #23
  ret void

10:                                               ; preds = %2
  %11 = landingpad { ptr, i32 }
          catch ptr null
  %12 = extractvalue { ptr, i32 } %11, 0
  call void @__clang_call_terminate(ptr %12) #25
  unreachable
}

; Function Attrs: inlinehint mustprogress nounwind uwtable
define linkonce_odr hidden void @_ZN5ceres8internal14LinearOperatorC2Ev(ptr noundef nonnull align 8 dereferenceable(8) %0) unnamed_addr #4 comdat align 2 {
  %2 = alloca ptr, align 8
  store ptr %0, ptr %2, align 8, !tbaa !113
  %3 = load ptr, ptr %2, align 8
  store ptr getelementptr inbounds inrange(-16, 96) ({ [14 x ptr] }, ptr @_ZTVN5ceres8internal14LinearOperatorE, i32 0, i32 0, i32 2), ptr %3, align 8, !tbaa !18
  ret void
}

; Function Attrs: inlinehint mustprogress nounwind uwtable
define linkonce_odr hidden void @_ZN5Eigen6MatrixIdLin1ELin1ELi1ELin1ELin1EEC2EOS1_(ptr noundef nonnull align 8 dereferenceable(24) %0, ptr noundef nonnull align 8 dereferenceable(24) %1) unnamed_addr #4 comdat align 2 {
  %3 = alloca ptr, align 8
  %4 = alloca ptr, align 8
  store ptr %0, ptr %3, align 8, !tbaa !22
  store ptr %1, ptr %4, align 8, !tbaa !22
  %5 = load ptr, ptr %3, align 8
  %6 = load ptr, ptr %4, align 8, !tbaa !22
  call void @_ZN5Eigen15PlainObjectBaseINS_6MatrixIdLin1ELin1ELi1ELin1ELin1EEEEC2EOS3_(ptr noundef nonnull align 8 dereferenceable(24) %5, ptr noundef nonnull align 8 dereferenceable(24) %6) #23
  call void @_ZN5Eigen15PlainObjectBaseINS_6MatrixIdLin1ELin1ELi1ELin1ELin1EEEE22_check_template_paramsEv()
  ret void
}

; Function Attrs: inlinehint mustprogress nounwind uwtable
define linkonce_odr hidden void @_ZN5ceres8internal12SparseMatrixC2Ev(ptr noundef nonnull align 8 dereferenceable(8) %0) unnamed_addr #4 comdat align 2 {
  %2 = alloca ptr, align 8
  store ptr %0, ptr %2, align 8, !tbaa !20
  %3 = load ptr, ptr %2, align 8
  call void @_ZN5ceres8internal14LinearOperatorC2Ev(ptr noundef nonnull align 8 dereferenceable(8) %3) #23
  store ptr getelementptr inbounds inrange(-16, 184) ({ [25 x ptr] }, ptr @_ZTVN5ceres8internal12SparseMatrixE, i32 0, i32 0, i32 2), ptr %3, align 8, !tbaa !18
  ret void
}

; Function Attrs: mustprogress nounwind uwtable
define hidden void @_ZN5ceres8internal17DenseSparseMatrixC2EN5Eigen6MatrixIdLin1ELin1ELi1ELin1ELin1EEE(ptr noundef nonnull align 8 dereferenceable(32) %0, ptr noundef %1) unnamed_addr #1 align 2 {
  %3 = alloca ptr, align 8
  %4 = alloca ptr, align 8
  store ptr %0, ptr %3, align 8, !tbaa !14
  store ptr %1, ptr %4, align 8, !tbaa !22
  %5 = load ptr, ptr %3, align 8
  call void @_ZN5ceres8internal12SparseMatrixC2Ev(ptr noundef nonnull align 8 dereferenceable(8) %5) #23
  store ptr getelementptr inbounds inrange(-16, 184) ({ [25 x ptr] }, ptr @_ZTVN5ceres8internal17DenseSparseMatrixE, i32 0, i32 0, i32 2), ptr %5, align 8, !tbaa !18
  %6 = getelementptr inbounds nuw %"class.ceres::internal::DenseSparseMatrix", ptr %5, i32 0, i32 1
  call void @_ZN5Eigen6MatrixIdLin1ELin1ELi1ELin1ELin1EEC2EOS1_(ptr noundef nonnull align 8 dereferenceable(24) %6, ptr noundef nonnull align 8 dereferenceable(24) %1) #23
  ret void
}